target datalayout = "e-m:e-p270:32:32-p271:32:32-p272:64:64-i64:64-i128:128-f80:128-n8:16:32:64-S128"
target triple = "x86_64-pc-linux-gnu"

%struct.H5HF_sect_add_ud_t = type { ptr }
%struct.H5HF_free_section_t = type { %struct.H5FS_section_info_t, %union.anon }
%struct.H5FS_section_info_t = type { i64, i64, i32, i32 }
%union.anon = type { %struct.anon.1 }
%struct.anon.1 = type { %union.anon.2, i32, i32, i32, ptr, i32, i64, i32, i32, i32, ptr, i32, ptr }
%union.anon.2 = type { ptr }
%struct.anon = type { ptr, i32 }

@H5HF_init_g = external global i8, align 1
@H5_libterm_g = external global i8, align 1
@.str = private unnamed_addr constant [105 x i8] c"generated/home/dtcxzyw/WorkSpace/Projects/compilers/llvm-opt-benchmark/bench/hdf5/hdf5/src/H5HFsection.c\00", align 1
@H5E_HEAP_g = external global i64, align 8
@H5E_CANTRELEASE_g = external global i64, align 8
@H5E_CANTINIT_g = external global i64, align 8
@__func__.H5HF__sect_single_free = private unnamed_addr constant [23 x i8] c"H5HF__sect_single_free\00", align 1
@.str.6 = private unnamed_addr constant [24 x i8] c"can't free section node\00", align 1
@H5_H5HF_free_section_t_reg_free_list = internal global { i8, [3 x i8], i32, i32, [4 x i8], ptr, i64, ptr } { i8 0, [3 x i8] zeroinitializer, i32 0, i32 0, [4 x i8] zeroinitializer, ptr @.str.17, i64 112, ptr null }, align 8
@H5E_CANTDEC_g = external global i64, align 8
@.str.20 = private unnamed_addr constant [60 x i8] c"can't decrement reference count on section's indirect block\00", align 1
@H5E_CANTCONVERT_g = external global i64, align 8
@.str.22 = private unnamed_addr constant [35 x i8] c"can't check/convert single section\00", align 1
@__func__.H5HF__sect_single_merge = private unnamed_addr constant [24 x i8] c"H5HF__sect_single_merge\00", align 1
@.str.33 = private unnamed_addr constant [33 x i8] c"can't revive single free section\00", align 1
@__func__.H5HF__sect_node_free = private unnamed_addr constant [21 x i8] c"H5HF__sect_node_free\00", align 1

; Function Attrs: nounwind uwtable
define internal i32 @H5HF__sect_node_free(ptr noundef %0, ptr noundef %1) #0 {
  %3 = alloca ptr, align 8
  %4 = alloca ptr, align 8
  %5 = alloca i32, align 4
  %6 = alloca i8, align 1
  store ptr %0, ptr %3, align 8, !tbaa !23
  store ptr %1, ptr %4, align 8, !tbaa !66
  call void @llvm.lifetime.start.p0(i64 4, ptr %5) #7
  store i32 0, ptr %5, align 4, !tbaa !11
  call void @llvm.lifetime.start.p0(i64 1, ptr %6) #7
  store i8 0, ptr %6, align 1, !tbaa !13
  %7 = load i8, ptr @H5HF_init_g, align 1, !tbaa !13, !range !15, !noundef !16
  %8 = trunc i8 %7 to i1
  br i1 %8, label %13, label %9

9:                                                ; preds = %2
  %10 = load i8, ptr @H5_libterm_g, align 1, !tbaa !13, !range !15, !noundef !16
  %11 = trunc i8 %10 to i1
  %12 = xor i1 %11, true
  br label %13

13:                                               ; preds = %9, %2
  %14 = phi i1 [ true, %2 ], [ %12, %9 ]
  %15 = xor i1 %14, true
  %16 = xor i1 %15, true
  %17 = zext i1 %16 to i32
  %18 = sext i32 %17 to i64
  %19 = call i64 @llvm.expect.i64(i64 %18, i64 1)
  %20 = icmp ne i64 %19, 0
  br i1 %20, label %21, label %52

21:                                               ; preds = %13
  %22 = load ptr, ptr %4, align 8, !tbaa !66
  %23 = icmp ne ptr %22, null
  br i1 %23, label %24, label %48

24:                                               ; preds = %21
  %25 = load ptr, ptr %4, align 8, !tbaa !66
  %26 = call i32 @H5HF__iblock_decr(ptr noundef %25)
  %27 = icmp slt i32 %26, 0
  br i1 %27, label %28, label %47

28:                                               ; preds = %24
  br label %29

29:                                               ; preds = %28
  br label %30

30:                                               ; preds = %29
  br label %31

31:                                               ; preds = %30
  %32 = load i64, ptr @H5E_HEAP_g, align 8, !tbaa !25
  %33 = load i64, ptr @H5E_CANTDEC_g, align 8, !tbaa !25
  %34 = call i32 (ptr, ptr, i32, i64, i64, ptr, ...) @H5E_printf_stack(ptr noundef @.str, ptr noundef @__func__.H5HF__sect_node_free, i32 noundef 413, i64 noundef %32, i64 noundef %33, ptr noundef @.str.20)
  br label %35

35:                                               ; preds = %31
  br label %36

36:                                               ; preds = %35
  store i8 1, ptr %6, align 1, !tbaa !13
  %37 = load i8, ptr %6, align 1, !tbaa !13, !range !15, !noundef !16
  %38 = trunc i8 %37 to i1
  %39 = zext i1 %38 to i8
  store i8 %39, ptr %6, align 1, !tbaa !13
  br label %40

40:                                               ; preds = %36
  br label %41

41:                                               ; preds = %40
  br label %42

42:                                               ; preds = %41
  store i32 -1, ptr %5, align 4, !tbaa !11
  br label %51

43:                                               ; No predecessors!
  br label %44

44:                                               ; preds = %43
  br label %45

45:                                               ; preds = %44
  br label %46

46:                                               ; preds = %45
  br label %47

47:                                               ; preds = %46, %24
  br label %48

48:                                               ; preds = %47, %21
  %49 = load ptr, ptr %3, align 8, !tbaa !23
  %50 = call ptr @H5FL_reg_free(ptr noundef @H5_H5HF_free_section_t_reg_free_list, ptr noundef %49)
  store ptr %50, ptr %3, align 8, !tbaa !23
  br label %51

51:                                               ; preds = %48, %42
  br label %52

52:                                               ; preds = %51, %13
  %53 = load i32, ptr %5, align 4, !tbaa !11
  call void @llvm.lifetime.end.p0(i64 1, ptr %6) #7
  call void @llvm.lifetime.end.p0(i64 4, ptr %5) #7
  ret i32 %53
}

; Function Attrs: nounwind uwtable
define i32 @H5HF__sect_single_free(ptr noundef %0) #0 {
  %2 = alloca ptr, align 8
  %3 = alloca ptr, align 8
  %4 = alloca ptr, align 8
  %5 = alloca i32, align 4
  %6 = alloca i8, align 1
  store ptr %0, ptr %2, align 8, !tbaa !34
  call void @llvm.lifetime.start.p0(i64 8, ptr %3) #7
  %7 = load ptr, ptr %2, align 8, !tbaa !34
  store ptr %7, ptr %3, align 8, !tbaa !23
  call void @llvm.lifetime.start.p0(i64 8, ptr %4) #7
  store ptr null, ptr %4, align 8, !tbaa !66
  call void @llvm.lifetime.start.p0(i64 4, ptr %5) #7
  store i32 0, ptr %5, align 4, !tbaa !11
  call void @llvm.lifetime.start.p0(i64 1, ptr %6) #7
  store i8 0, ptr %6, align 1, !tbaa !13
  %8 = load i8, ptr @H5HF_init_g, align 1, !tbaa !13, !range !15, !noundef !16
  %9 = trunc i8 %8 to i1
  br i1 %9, label %14, label %10

10:                                               ; preds = %1
  %11 = load i8, ptr @H5_libterm_g, align 1, !tbaa !13, !range !15, !noundef !16
  %12 = trunc i8 %11 to i1
  %13 = xor i1 %12, true
  br label %14

14:                                               ; preds = %10, %1
  %15 = phi i1 [ true, %1 ], [ %13, %10 ]
  %16 = xor i1 %15, true
  %17 = xor i1 %16, true
  %18 = zext i1 %17 to i32
  %19 = sext i32 %18 to i64
  %20 = call i64 @llvm.expect.i64(i64 %19, i64 1)
  %21 = icmp ne i64 %20, 0
  br i1 %21, label %22, label %66

22:                                               ; preds = %14
  %23 = load ptr, ptr %3, align 8, !tbaa !23
  %24 = getelementptr inbounds nuw %struct.H5HF_free_section_t, ptr %23, i32 0, i32 0
  %25 = getelementptr inbounds nuw %struct.H5FS_section_info_t, ptr %24, i32 0, i32 3
  %26 = load i32, ptr %25, align 4, !tbaa !38
  %27 = icmp eq i32 %26, 0
  br i1 %27, label %28, label %40

28:                                               ; preds = %22
  %29 = load ptr, ptr %3, align 8, !tbaa !23
  %30 = getelementptr inbounds nuw %struct.H5HF_free_section_t, ptr %29, i32 0, i32 1
  %31 = getelementptr inbounds nuw %struct.anon, ptr %30, i32 0, i32 0
  %32 = load ptr, ptr %31, align 8, !tbaa !63
  %33 = icmp ne ptr %32, null
  br i1 %33, label %34, label %39

34:                                               ; preds = %28
  %35 = load ptr, ptr %3, align 8, !tbaa !23
  %36 = getelementptr inbounds nuw %struct.H5HF_free_section_t, ptr %35, i32 0, i32 1
  %37 = getelementptr inbounds nuw %struct.anon, ptr %36, i32 0, i32 0
  %38 = load ptr, ptr %37, align 8, !tbaa !63
  store ptr %38, ptr %4, align 8, !tbaa !66
  br label %39

39:                                               ; preds = %34, %28
  br label %40

40:                                               ; preds = %39, %22
  %41 = load ptr, ptr %3, align 8, !tbaa !23
  %42 = load ptr, ptr %4, align 8, !tbaa !66
  %43 = call i32 @H5HF__sect_node_free(ptr noundef %41, ptr noundef %42)
  %44 = icmp slt i32 %43, 0
  br i1 %44, label %45, label %64

45:                                               ; preds = %40
  br label %46

46:                                               ; preds = %45
  br label %47

47:                                               ; preds = %46
  br label %48

48:                                               ; preds = %47
  %49 = load i64, ptr @H5E_HEAP_g, align 8, !tbaa !25
  %50 = load i64, ptr @H5E_CANTRELEASE_g, align 8, !tbaa !25
  %51 = call i32 (ptr, ptr, i32, i64, i64, ptr, ...) @H5E_printf_stack(ptr noundef @.str, ptr noundef @__func__.H5HF__sect_single_free, i32 noundef 1057, i64 noundef %49, i64 noundef %50, ptr noundef @.str.6)
  br label %52

52:                                               ; preds = %48
  br label %53

53:                                               ; preds = %52
  store i8 1, ptr %6, align 1, !tbaa !13
  %54 = load i8, ptr %6, align 1, !tbaa !13, !range !15, !noundef !16
  %55 = trunc i8 %54 to i1
  %56 = zext i1 %55 to i8
  store i8 %56, ptr %6, align 1, !tbaa !13
  br label %57

57:                                               ; preds = %53
  br label %58

58:                                               ; preds = %57
  br label %59

59:                                               ; preds = %58
  store i32 -1, ptr %5, align 4, !tbaa !11
  br label %65

60:                                               ; No predecessors!
  br label %61

61:                                               ; preds = %60
  br label %62

62:                                               ; preds = %61
  br label %63

63:                                               ; preds = %62
  br label %64

64:                                               ; preds = %63, %40
  br label %65

65:                                               ; preds = %64, %59
  br label %66

66:                                               ; preds = %65, %14
  %67 = load i32, ptr %5, align 4, !tbaa !11
  call void @llvm.lifetime.end.p0(i64 1, ptr %6) #7
  call void @llvm.lifetime.end.p0(i64 4, ptr %5) #7
  call void @llvm.lifetime.end.p0(i64 8, ptr %4) #7
  call void @llvm.lifetime.end.p0(i64 8, ptr %3) #7
  ret i32 %67
}

; Function Attrs: nounwind uwtable
define internal i32 @H5HF__sect_single_merge(ptr noundef %0, ptr noundef %1, ptr noundef %2) #0 {
  %4 = alloca ptr, align 8
  %5 = alloca ptr, align 8
  %6 = alloca ptr, align 8
  %7 = alloca ptr, align 8
  %8 = alloca ptr, align 8
  %9 = alloca ptr, align 8
  %10 = alloca ptr, align 8
  %11 = alloca i32, align 4
  %12 = alloca i8, align 1
  store ptr %0, ptr %4, align 8, !tbaa !3
  store ptr %1, ptr %5, align 8, !tbaa !34
  store ptr %2, ptr %6, align 8, !tbaa !10
  call void @llvm.lifetime.start.p0(i64 8, ptr %7) #7
  %13 = load ptr, ptr %4, align 8, !tbaa !3
  store ptr %13, ptr %7, align 8, !tbaa !17
  call void @llvm.lifetime.start.p0(i64 8, ptr %8) #7
  %14 = load ptr, ptr %5, align 8, !tbaa !34
  store ptr %14, ptr %8, align 8, !tbaa !23
  call void @llvm.lifetime.start.p0(i64 8, ptr %9) #7
  %15 = load ptr, ptr %6, align 8, !tbaa !10
  store ptr %15, ptr %9, align 8, !tbaa !10
  call void @llvm.lifetime.start.p0(i64 8, ptr %10) #7
  %16 = load ptr, ptr %9, align 8, !tbaa !10
  %17 = getelementptr inbounds nuw %struct.H5HF_sect_add_ud_t, ptr %16, i32 0, i32 0
  %18 = load ptr, ptr %17, align 8, !tbaa !19
  store ptr %18, ptr %10, align 8, !tbaa !22
  call void @llvm.lifetime.start.p0(i64 4, ptr %11) #7
  store i32 0, ptr %11, align 4, !tbaa !11
  call void @llvm.lifetime.start.p0(i64 1, ptr %12) #7
  store i8 0, ptr %12, align 1, !tbaa !13
  %19 = load i8, ptr @H5HF_init_g, align 1, !tbaa !13, !range !15, !noundef !16
  %20 = trunc i8 %19 to i1
  br i1 %20, label %25, label %21

21:                                               ; preds = %3
  %22 = load i8, ptr @H5_libterm_g, align 1, !tbaa !13, !range !15, !noundef !16
  %23 = trunc i8 %22 to i1
  %24 = xor i1 %23, true
  br label %25

25:                                               ; preds = %21, %3
  %26 = phi i1 [ true, %3 ], [ %24, %21 ]
  %27 = xor i1 %26, true
  %28 = xor i1 %27, true
  %29 = zext i1 %28 to i32
  %30 = sext i32 %29 to i64
  %31 = call i64 @llvm.expect.i64(i64 %30, i64 1)
  %32 = icmp ne i64 %31, 0
  br i1 %32, label %33, label %126

33:                                               ; preds = %25
  %34 = load ptr, ptr %8, align 8, !tbaa !23
  %35 = getelementptr inbounds nuw %struct.H5HF_free_section_t, ptr %34, i32 0, i32 0
  %36 = getelementptr inbounds nuw %struct.H5FS_section_info_t, ptr %35, i32 0, i32 1
  %37 = load i64, ptr %36, align 8, !tbaa !37
  %38 = load ptr, ptr %7, align 8, !tbaa !17
  %39 = load ptr, ptr %38, align 8, !tbaa !23
  %40 = getelementptr inbounds nuw %struct.H5HF_free_section_t, ptr %39, i32 0, i32 0
  %41 = getelementptr inbounds nuw %struct.H5FS_section_info_t, ptr %40, i32 0, i32 1
  %42 = load i64, ptr %41, align 8, !tbaa !37
  %43 = add i64 %42, %37
  store i64 %43, ptr %41, align 8, !tbaa !37
  %44 = load ptr, ptr %8, align 8, !tbaa !23
  %45 = call i32 @H5HF__sect_single_free(ptr noundef %44)
  %46 = icmp slt i32 %45, 0
  br i1 %46, label %47, label %66

47:                                               ; preds = %33
  br label %48

48:                                               ; preds = %47
  br label %49

49:                                               ; preds = %48
  br label %50

50:                                               ; preds = %49
  %51 = load i64, ptr @H5E_HEAP_g, align 8, !tbaa !25
  %52 = load i64, ptr @H5E_CANTRELEASE_g, align 8, !tbaa !25
  %53 = call i32 (ptr, ptr, i32, i64, i64, ptr, ...) @H5E_printf_stack(ptr noundef @.str, ptr noundef @__func__.H5HF__sect_single_merge, i32 noundef 889, i64 noundef %51, i64 noundef %52, ptr noundef @.str.6)
  br label %54

54:                                               ; preds = %50
  br label %55

55:                                               ; preds = %54
  store i8 1, ptr %12, align 1, !tbaa !13
  %56 = load i8, ptr %12, align 1, !tbaa !13, !range !15, !noundef !16
  %57 = trunc i8 %56 to i1
  %58 = zext i1 %57 to i8
  store i8 %58, ptr %12, align 1, !tbaa !13
  br label %59

59:                                               ; preds = %55
  br label %60

60:                                               ; preds = %59
  br label %61

61:                                               ; preds = %60
  store i32 -1, ptr %11, align 4, !tbaa !11
  br label %125

62:                                               ; No predecessors!
  br label %63

63:                                               ; preds = %62
  br label %64

64:                                               ; preds = %63
  br label %65

65:                                               ; preds = %64
  br label %66

66:                                               ; preds = %65, %33
  %67 = load ptr, ptr %7, align 8, !tbaa !17
  %68 = load ptr, ptr %67, align 8, !tbaa !23
  %69 = getelementptr inbounds nuw %struct.H5HF_free_section_t, ptr %68, i32 0, i32 0
  %70 = getelementptr inbounds nuw %struct.H5FS_section_info_t, ptr %69, i32 0, i32 3
  %71 = load i32, ptr %70, align 4, !tbaa !38
  %72 = icmp ne i32 %71, 0
  br i1 %72, label %73, label %99

73:                                               ; preds = %66
  %74 = load ptr, ptr %10, align 8, !tbaa !22
  %75 = load ptr, ptr %7, align 8, !tbaa !17
  %76 = load ptr, ptr %75, align 8, !tbaa !23
  %77 = call i32 @H5HF__sect_single_revive(ptr noundef %74, ptr noundef %76)
  %78 = icmp slt i32 %77, 0
  br i1 %78, label %79, label %98

79:                                               ; preds = %73
  br label %80

80:                                               ; preds = %79
  br label %81

81:                                               ; preds = %80
  br label %82

82:                                               ; preds = %81
  %83 = load i64, ptr @H5E_HEAP_g, align 8, !tbaa !25
  %84 = load i64, ptr @H5E_CANTINIT_g, align 8, !tbaa !25
  %85 = call i32 (ptr, ptr, i32, i64, i64, ptr, ...) @H5E_printf_stack(ptr noundef @.str, ptr noundef @__func__.H5HF__sect_single_merge, i32 noundef 894, i64 noundef %83, i64 noundef %84, ptr noundef @.str.33)
  br label %86

86:                                               ; preds = %82
  br label %87

87:                                               ; preds = %86
  store i8 1, ptr %12, align 1, !tbaa !13
  %88 = load i8, ptr %12, align 1, !tbaa !13, !range !15, !noundef !16
  %89 = trunc i8 %88 to i1
  %90 = zext i1 %89 to i8
  store i8 %90, ptr %12, align 1, !tbaa !13
  br label %91

91:                                               ; preds = %87
  br label %92

92:                                               ; preds = %91
  br label %93

93:                                               ; preds = %92
  store i32 -1, ptr %11, align 4, !tbaa !11
  br label %125

94:                                               ; No predecessors!
  br label %95

95:                                               ; preds = %94
  br label %96

96:                                               ; preds = %95
  br label %97

97:                                               ; preds = %96
  br label %98

98:                                               ; preds = %97, %73
  br label %99

99:                                               ; preds = %98, %66
  %100 = load ptr, ptr %10, align 8, !tbaa !22
  %101 = load ptr, ptr %7, align 8, !tbaa !17
  %102 = load ptr, ptr %101, align 8, !tbaa !23
  %103 = call i32 @H5HF__sect_single_full_dblock(ptr noundef %100, ptr noundef %102)
  %104 = icmp slt i32 %103, 0
  br i1 %104, label %105, label %124

105:                                              ; preds = %99
  br label %106

106:                                              ; preds = %105
  br label %107

107:                                              ; preds = %106
  br label %108

108:                                              ; preds = %107
  %109 = load i64, ptr @H5E_HEAP_g, align 8, !tbaa !25
  %110 = load i64, ptr @H5E_CANTCONVERT_g, align 8, !tbaa !25
  %111 = call i32 (ptr, ptr, i32, i64, i64, ptr, ...) @H5E_printf_stack(ptr noundef @.str, ptr noundef @__func__.H5HF__sect_single_merge, i32 noundef 899, i64 noundef %109, i64 noundef %110, ptr noundef @.str.22)
  br label %112

112:                                              ; preds = %108
  br label %113

113:                                              ; preds = %112
  store i8 1, ptr %12, align 1, !tbaa !13
  %114 = load i8, ptr %12, align 1, !tbaa !13, !range !15, !noundef !16
  %115 = trunc i8 %114 to i1
  %116 = zext i1 %115 to i8
  store i8 %116, ptr %12, align 1, !tbaa !13
  br label %117

117:                                              ; preds = %113
  br label %118

118:                                              ; preds = %117
  br label %119

119:                                              ; preds = %118
  store i32 -1, ptr %11, align 4, !tbaa !11
  br label %125

120:                                              ; No predecessors!
  br label %121

121:                                              ; preds = %120
  br label %122

122:                                              ; preds = %121
  br label %123

123:                                              ; preds = %122
  br label %124

124:                                              ; preds = %123, %99
  br label %125

125:                                              ; preds = %124, %119, %93, %61
  br label %126

126:                                              ; preds = %125, %25
  %127 = load i32, ptr %11, align 4, !tbaa !11
  call void @llvm.lifetime.end.p0(i64 1, ptr %12) #7
  call void @llvm.lifetime.end.p0(i64 4, ptr %11) #7
  call void @llvm.lifetime.end.p0(i64 8, ptr %10) #7
  call void @llvm.lifetime.end.p0(i64 8, ptr %9) #7
  call void @llvm.lifetime.end.p0(i64 8, ptr %8) #7
  call void @llvm.lifetime.end.p0(i64 8, ptr %7) #7
  ret i32 %127
}