; Function Attrs: nounwind uwtable
define internal range(i32 -1, 1) i32 @H5HF__sect_single_merge(ptr noundef readonly captures(none) %0, ptr noundef %1, ptr noundef readonly captures(none) %2) #0 {
  %4 = load ptr, ptr %2, align 8, !tbaa !12
  %5 = load i8, ptr @H5HF_init_g, align 1, !tbaa !3, !range !7, !noundef !8
  %6 = trunc nuw i8 %5 to i1
  %7 = load i8, ptr @H5_libterm_g, align 1, !range !7
  %8 = trunc nuw i8 %7 to i1
  %9 = xor i1 %8, true
  %10 = select i1 %6, i1 true, i1 %9
  br i1 %10, label %11, label %57, !prof !9

11:                                               ; preds = %3
  %12 = getelementptr inbounds nuw i8, ptr %1, i64 8
  %13 = load i64, ptr %12, align 8, !tbaa !24
  %14 = load ptr, ptr %0, align 8, !tbaa !16
  %15 = getelementptr inbounds nuw i8, ptr %14, i64 8
  %16 = load i64, ptr %15, align 8, !tbaa !24
  %17 = add i64 %16, %13
  store i64 %17, ptr %15, align 8, !tbaa !24
  %18 = getelementptr inbounds nuw i8, ptr %1, i64 20
  %19 = load i32, ptr %18, align 4, !tbaa !25
  %20 = icmp eq i32 %19, 0
  br i1 %20, label %21, label %37

21:                                               ; preds = %11
  %22 = getelementptr inbounds nuw i8, ptr %1, i64 24
  %23 = load ptr, ptr %22, align 8, !tbaa !26
  %.not.i.i = icmp eq ptr %23, null
  br i1 %.not.i.i, label %37, label %24

24:                                               ; preds = %21
  %25 = tail call i32 @H5HF__iblock_decr(ptr noundef nonnull %23) #13
  %26 = icmp slt i32 %25, 0
  br i1 %26, label %27, label %37

27:                                               ; preds = %24
  %28 = load i64, ptr @H5E_HEAP_g, align 8, !tbaa !18
  %29 = load i64, ptr @H5E_CANTDEC_g, align 8, !tbaa !18
  %30 = tail call i32 (ptr, ptr, i32, i64, i64, ptr, ...) @H5E_printf_stack(ptr noundef nonnull @.str, ptr noundef nonnull @__func__.H5HF__sect_node_free, i32 noundef 413, i64 noundef %28, i64 noundef %29, ptr noundef nonnull @.str.20) #13
  %31 = load i64, ptr @H5E_HEAP_g, align 8, !tbaa !18
  %32 = load i64, ptr @H5E_CANTRELEASE_g, align 8, !tbaa !18
  %33 = tail call i32 (ptr, ptr, i32, i64, i64, ptr, ...) @H5E_printf_stack(ptr noundef nonnull @.str, ptr noundef nonnull @__func__.H5HF__sect_single_free, i32 noundef 1057, i64 noundef %31, i64 noundef %32, ptr noundef nonnull @.str.6) #13
  %34 = load i64, ptr @H5E_HEAP_g, align 8, !tbaa !18
  %35 = load i64, ptr @H5E_CANTRELEASE_g, align 8, !tbaa !18
  %36 = tail call i32 (ptr, ptr, i32, i64, i64, ptr, ...) @H5E_printf_stack(ptr noundef nonnull @.str, ptr noundef nonnull @__func__.H5HF__sect_single_merge, i32 noundef 889, i64 noundef %34, i64 noundef %35, ptr noundef nonnull @.str.6) #13
  br label %57

37:                                               ; preds = %24, %21, %11
  %38 = tail call ptr @H5FL_reg_free(ptr noundef nonnull @H5_H5HF_free_section_t_reg_free_list, ptr noundef nonnull %1) #13
  %39 = load ptr, ptr %0, align 8, !tbaa !16
  %40 = getelementptr inbounds nuw i8, ptr %39, i64 20
  %41 = load i32, ptr %40, align 4, !tbaa !25
  %.not = icmp eq i32 %41, 0
  br i1 %.not, label %49, label %42

42:                                               ; preds = %37
  %43 = tail call i32 @H5HF__sect_single_revive(ptr noundef %4, ptr noundef nonnull %39)
  %44 = icmp slt i32 %43, 0
  br i1 %44, label %45, label %._crit_edge

._crit_edge:                                      ; preds = %42
  %.pre = load ptr, ptr %0, align 8, !tbaa !16
  br label %49

45:                                               ; preds = %42
  %46 = load i64, ptr @H5E_HEAP_g, align 8, !tbaa !18
  %47 = load i64, ptr @H5E_CANTINIT_g, align 8, !tbaa !18
  %48 = tail call i32 (ptr, ptr, i32, i64, i64, ptr, ...) @H5E_printf_stack(ptr noundef nonnull @.str, ptr noundef nonnull @__func__.H5HF__sect_single_merge, i32 noundef 894, i64 noundef %46, i64 noundef %47, ptr noundef nonnull @.str.33) #13
  br label %57

49:                                               ; preds = %._crit_edge, %37
  %50 = phi ptr [ %.pre, %._crit_edge ], [ %39, %37 ]
  %51 = tail call fastcc i32 @H5HF__sect_single_full_dblock(ptr noundef %4, ptr noundef %50)
  %52 = icmp slt i32 %51, 0
  br i1 %52, label %53, label %57

53:                                               ; preds = %49
  %54 = load i64, ptr @H5E_HEAP_g, align 8, !tbaa !18
  %55 = load i64, ptr @H5E_CANTCONVERT_g, align 8, !tbaa !18
  %56 = tail call i32 (ptr, ptr, i32, i64, i64, ptr, ...) @H5E_printf_stack(ptr noundef nonnull @.str, ptr noundef nonnull @__func__.H5HF__sect_single_merge, i32 noundef 899, i64 noundef %54, i64 noundef %55, ptr noundef nonnull @.str.22) #13
  br label %57

57:                                               ; preds = %27, %45, %53, %49, %3
  %.0 = phi i32 [ -1, %27 ], [ -1, %45 ], [ -1, %53 ], [ 0, %49 ], [ 0, %3 ]
  ret i32 %.0
}